target datalayout = "e-m:e-p270:32:32-p271:32:32-p272:64:64-i64:64-i128:128-f80:128-n8:16:32:64-S128"
target triple = "x86_64-unknown-linux-gnu"

%"class.std::__shared_count" = type { ptr }
%"class.std::_Function_base" = type { %"union.std::_Any_data", ptr }
%"union.std::_Any_data" = type { %"union.std::_Nocopy_types" }
%"union.std::_Nocopy_types" = type { { i64, i64 } }
%"class.std::shared_ptr.33" = type { %"class.std::__shared_ptr.34" }
%"class.std::__shared_ptr.34" = type { ptr, %"class.std::__shared_count" }
%"class.arrow::compute::InputType" = type { i32, %"class.std::shared_ptr.72", %"class.std::shared_ptr.33" }
%"class.std::shared_ptr.72" = type { %"class.std::__shared_ptr.73" }
%"class.std::__shared_ptr.73" = type { ptr, %"class.std::__shared_count" }
%"class.arrow::compute::OutputType" = type { i32, %"class.std::shared_ptr.72", %"class.std::function.105" }
%"class.std::function.105" = type { %"class.std::_Function_base", ptr }
%"class.arrow::compute::KernelSignature" = type { %"class.std::vector.113", %"class.arrow::compute::OutputType", i8, i64 }
%"class.std::vector.113" = type { %"struct.std::_Vector_base.114" }
%"struct.std::_Vector_base.114" = type { %"struct.std::_Vector_base<arrow::compute::InputType, std::allocator<arrow::compute::InputType>>::_Vector_impl" }
%"struct.std::_Vector_base<arrow::compute::InputType, std::allocator<arrow::compute::InputType>>::_Vector_impl" = type { %"struct.std::_Vector_base<arrow::compute::InputType, std::allocator<arrow::compute::InputType>>::_Vector_impl_data" }
%"struct.std::_Vector_base<arrow::compute::InputType, std::allocator<arrow::compute::InputType>>::_Vector_impl_data" = type { ptr, ptr, ptr }
%"struct.std::_Vector_base.109" = type { %"struct.std::_Vector_base<arrow::TypeHolder, std::allocator<arrow::TypeHolder>>::_Vector_impl" }
%"struct.std::_Vector_base<arrow::TypeHolder, std::allocator<arrow::TypeHolder>>::_Vector_impl" = type { %"struct.std::_Vector_base<arrow::TypeHolder, std::allocator<arrow::TypeHolder>>::_Vector_impl_data" }
%"struct.std::_Vector_base<arrow::TypeHolder, std::allocator<arrow::TypeHolder>>::_Vector_impl_data" = type { ptr, ptr, ptr }
%"struct.arrow::TypeHolder" = type { ptr, %"class.std::shared_ptr.72" }

; Function Attrs: mustprogress nounwind uwtable
define linkonce_odr noundef ptr @_ZNKSt12__shared_ptrIN5arrow7compute11TypeMatcherELN9__gnu_cxx12_Lock_policyE2EE3getEv(ptr noundef nonnull align 8 dereferenceable(16) %this) #2 comdat align 2 {
entry:
  %this.addr = alloca ptr, align 8
  store ptr %this, ptr %this.addr, align 8
  %this1 = load ptr, ptr %this.addr, align 8
  %_M_ptr = getelementptr inbounds %"class.std::__shared_ptr.34", ptr %this1, i32 0, i32 0
  %0 = load ptr, ptr %_M_ptr, align 8
  ret ptr %0
}

; Function Attrs: mustprogress nounwind uwtable
define linkonce_odr noundef ptr @_ZNKSt12__shared_ptrIN5arrow8DataTypeELN9__gnu_cxx12_Lock_policyE2EE3getEv(ptr noundef nonnull align 8 dereferenceable(16) %this) #2 comdat align 2 {
entry:
  %this.addr = alloca ptr, align 8
  store ptr %this, ptr %this.addr, align 8
  %this1 = load ptr, ptr %this.addr, align 8
  %_M_ptr = getelementptr inbounds %"class.std::__shared_ptr.73", ptr %this1, i32 0, i32 0
  %0 = load ptr, ptr %_M_ptr, align 8
  ret ptr %0
}

; Function Attrs: mustprogress nounwind uwtable
define linkonce_odr noundef ptr @_ZNKSt19__shared_ptr_accessIN5arrow7compute11TypeMatcherELN9__gnu_cxx12_Lock_policyE2ELb0ELb0EE6_M_getEv(ptr noundef nonnull align 1 dereferenceable(1) %this) #2 comdat align 2 {
entry:
  %this.addr = alloca ptr, align 8
  store ptr %this, ptr %this.addr, align 8
  %this1 = load ptr, ptr %this.addr, align 8
  %call = call noundef ptr @_ZNKSt12__shared_ptrIN5arrow7compute11TypeMatcherELN9__gnu_cxx12_Lock_policyE2EE3getEv(ptr noundef nonnull align 8 dereferenceable(16) %this1) #12
  ret ptr %call
}

; Function Attrs: mustprogress nounwind uwtable
define linkonce_odr noundef ptr @_ZNKSt19__shared_ptr_accessIN5arrow8DataTypeELN9__gnu_cxx12_Lock_policyE2ELb0ELb0EE6_M_getEv(ptr noundef nonnull align 1 dereferenceable(1) %this) #2 comdat align 2 {
entry:
  %this.addr = alloca ptr, align 8
  store ptr %this, ptr %this.addr, align 8
  %this1 = load ptr, ptr %this.addr, align 8
  %call = call noundef ptr @_ZNKSt12__shared_ptrIN5arrow8DataTypeELN9__gnu_cxx12_Lock_policyE2EE3getEv(ptr noundef nonnull align 8 dereferenceable(16) %this1) #12
  ret ptr %call
}

; Function Attrs: mustprogress nounwind uwtable
define linkonce_odr noundef ptr @_ZNKSt19__shared_ptr_accessIN5arrow7compute11TypeMatcherELN9__gnu_cxx12_Lock_policyE2ELb0ELb0EEptEv(ptr noundef nonnull align 1 dereferenceable(1) %this) #2 comdat align 2 {
entry:
  %this.addr = alloca ptr, align 8
  store ptr %this, ptr %this.addr, align 8
  %this1 = load ptr, ptr %this.addr, align 8
  %call = call noundef ptr @_ZNKSt19__shared_ptr_accessIN5arrow7compute11TypeMatcherELN9__gnu_cxx12_Lock_policyE2ELb0ELb0EE6_M_getEv(ptr noundef nonnull align 1 dereferenceable(1) %this1) #12
  ret ptr %call
}

; Function Attrs: mustprogress nounwind uwtable
define linkonce_odr noundef ptr @_ZNKSt19__shared_ptr_accessIN5arrow8DataTypeELN9__gnu_cxx12_Lock_policyE2ELb0ELb0EEptEv(ptr noundef nonnull align 1 dereferenceable(1) %this) #2 comdat align 2 {
entry:
  %this.addr = alloca ptr, align 8
  store ptr %this, ptr %this.addr, align 8
  %this1 = load ptr, ptr %this.addr, align 8
  %call = call noundef ptr @_ZNKSt19__shared_ptr_accessIN5arrow8DataTypeELN9__gnu_cxx12_Lock_policyE2ELb0ELb0EE6_M_getEv(ptr noundef nonnull align 1 dereferenceable(1) %this1) #12
  ret ptr %call
}

; Function Attrs: mustprogress uwtable
define noundef zeroext i1 @_ZNK5arrow7compute9InputType7MatchesERKNS_8DataTypeE(ptr noundef nonnull align 8 dereferenceable(40) %this, ptr noundef nonnull align 8 dereferenceable(72) %type) #0 align 2 {
entry:
  %retval = alloca i1, align 1
  %this.addr = alloca ptr, align 8
  %type.addr = alloca ptr, align 8
  store ptr %this, ptr %this.addr, align 8
  store ptr %type, ptr %type.addr, align 8
  %this1 = load ptr, ptr %this.addr, align 8
  %kind_ = getelementptr inbounds %"class.arrow::compute::InputType", ptr %this1, i32 0, i32 0
  %0 = load i32, ptr %kind_, align 8
  switch i32 %0, label %sw.default [
    i32 1, label %sw.bb
    i32 2, label %sw.bb3
  ]

sw.bb:                                            ; preds = %entry
  %type_ = getelementptr inbounds %"class.arrow::compute::InputType", ptr %this1, i32 0, i32 1
  %call = call noundef ptr @_ZNKSt19__shared_ptr_accessIN5arrow8DataTypeELN9__gnu_cxx12_Lock_policyE2ELb0ELb0EEptEv(ptr noundef nonnull align 1 dereferenceable(1) %type_) #12
  %1 = load ptr, ptr %type.addr, align 8
  %call2 = call noundef zeroext i1 @_ZNK5arrow8DataType6EqualsERKS0_b(ptr noundef nonnull align 8 dereferenceable(72) %call, ptr noundef nonnull align 8 dereferenceable(72) %1, i1 noundef zeroext false)
  store i1 %call2, ptr %retval, align 1
  br label %return

sw.bb3:                                           ; preds = %entry
  %type_matcher_ = getelementptr inbounds %"class.arrow::compute::InputType", ptr %this1, i32 0, i32 2
  %call4 = call noundef ptr @_ZNKSt19__shared_ptr_accessIN5arrow7compute11TypeMatcherELN9__gnu_cxx12_Lock_policyE2ELb0ELb0EEptEv(ptr noundef nonnull align 1 dereferenceable(1) %type_matcher_) #12
  %2 = load ptr, ptr %type.addr, align 8
  %vtable = load ptr, ptr %call4, align 8
  %vfn = getelementptr inbounds ptr, ptr %vtable, i64 2
  %3 = load ptr, ptr %vfn, align 8
  %call5 = call noundef zeroext i1 %3(ptr noundef nonnull align 8 dereferenceable(8) %call4, ptr noundef nonnull align 8 dereferenceable(72) %2)
  store i1 %call5, ptr %retval, align 1
  br label %return

sw.default:                                       ; preds = %entry
  store i1 true, ptr %retval, align 1
  br label %return

return:                                           ; preds = %sw.default, %sw.bb3, %sw.bb
  %4 = load i1, ptr %retval, align 1
  ret i1 %4
}

; Function Attrs: mustprogress nounwind uwtable
define linkonce_odr noundef nonnull align 8 dereferenceable(72) ptr @_ZNK5arrow10TypeHolderdeEv(ptr noundef nonnull align 8 dereferenceable(24) %this) #2 comdat align 2 {
entry:
  %this.addr = alloca ptr, align 8
  store ptr %this, ptr %this.addr, align 8
  %this1 = load ptr, ptr %this.addr, align 8
  %type = getelementptr inbounds %"struct.arrow::TypeHolder", ptr %this1, i32 0, i32 0
  %0 = load ptr, ptr %type, align 8
  ret ptr %0
}

; Function Attrs: mustprogress nounwind uwtable
define linkonce_odr noundef nonnull align 8 dereferenceable(24) ptr @_ZNKSt6vectorIN5arrow10TypeHolderESaIS1_EEixEm(ptr noundef nonnull align 8 dereferenceable(24) %this, i64 noundef %__n) #2 comdat align 2 {
entry:
  %this.addr = alloca ptr, align 8
  %__n.addr = alloca i64, align 8
  store ptr %this, ptr %this.addr, align 8
  store i64 %__n, ptr %__n.addr, align 8
  %this1 = load ptr, ptr %this.addr, align 8
  %_M_impl = getelementptr inbounds %"struct.std::_Vector_base.109", ptr %this1, i32 0, i32 0
  %_M_start = getelementptr inbounds %"struct.std::_Vector_base<arrow::TypeHolder, std::allocator<arrow::TypeHolder>>::_Vector_impl_data", ptr %_M_impl, i32 0, i32 0
  %0 = load ptr, ptr %_M_start, align 8
  %1 = load i64, ptr %__n.addr, align 8
  %add.ptr = getelementptr inbounds %"struct.arrow::TypeHolder", ptr %0, i64 %1
  ret ptr %add.ptr
}

; Function Attrs: mustprogress nounwind uwtable
define linkonce_odr noundef nonnull align 8 dereferenceable(40) ptr @_ZNKSt6vectorIN5arrow7compute9InputTypeESaIS2_EEixEm(ptr noundef nonnull align 8 dereferenceable(24) %this, i64 noundef %__n) #2 comdat align 2 {
entry:
  %this.addr = alloca ptr, align 8
  %__n.addr = alloca i64, align 8
  store ptr %this, ptr %this.addr, align 8
  store i64 %__n, ptr %__n.addr, align 8
  %this1 = load ptr, ptr %this.addr, align 8
  %_M_impl = getelementptr inbounds %"struct.std::_Vector_base.114", ptr %this1, i32 0, i32 0
  %_M_start = getelementptr inbounds %"struct.std::_Vector_base<arrow::compute::InputType, std::allocator<arrow::compute::InputType>>::_Vector_impl_data", ptr %_M_impl, i32 0, i32 0
  %0 = load ptr, ptr %_M_start, align 8
  %1 = load i64, ptr %__n.addr, align 8
  %add.ptr = getelementptr inbounds %"class.arrow::compute::InputType", ptr %0, i64 %1
  ret ptr %add.ptr
}

; Function Attrs: mustprogress nounwind uwtable
define linkonce_odr noundef nonnull align 8 dereferenceable(8) ptr @_ZSt3minImERKT_S2_S2_(ptr noundef nonnull align 8 dereferenceable(8) %__a, ptr noundef nonnull align 8 dereferenceable(8) %__b) #2 comdat {
entry:
  %retval = alloca ptr, align 8
  %__a.addr = alloca ptr, align 8
  %__b.addr = alloca ptr, align 8
  store ptr %__a, ptr %__a.addr, align 8
  store ptr %__b, ptr %__b.addr, align 8
  %0 = load ptr, ptr %__b.addr, align 8
  %1 = load i64, ptr %0, align 8
  %2 = load ptr, ptr %__a.addr, align 8
  %3 = load i64, ptr %2, align 8
  %cmp = icmp ult i64 %1, %3
  br i1 %cmp, label %if.then, label %if.end

if.then:                                          ; preds = %entry
  %4 = load ptr, ptr %__b.addr, align 8
  store ptr %4, ptr %retval, align 8
  br label %return

if.end:                                           ; preds = %entry
  %5 = load ptr, ptr %__a.addr, align 8
  store ptr %5, ptr %retval, align 8
  br label %return

return:                                           ; preds = %if.end, %if.then
  %6 = load ptr, ptr %retval, align 8
  ret ptr %6
}

; Function Attrs: mustprogress nounwind uwtable
define linkonce_odr noundef i64 @_ZNKSt6vectorIN5arrow7compute9InputTypeESaIS2_EE4sizeEv(ptr noundef nonnull align 8 dereferenceable(24) %this) #2 comdat align 2 {
entry:
  %this.addr = alloca ptr, align 8
  store ptr %this, ptr %this.addr, align 8
  %this1 = load ptr, ptr %this.addr, align 8
  %_M_impl = getelementptr inbounds %"struct.std::_Vector_base.114", ptr %this1, i32 0, i32 0
  %_M_finish = getelementptr inbounds %"struct.std::_Vector_base<arrow::compute::InputType, std::allocator<arrow::compute::InputType>>::_Vector_impl_data", ptr %_M_impl, i32 0, i32 1
  %0 = load ptr, ptr %_M_finish, align 8
  %_M_impl2 = getelementptr inbounds %"struct.std::_Vector_base.114", ptr %this1, i32 0, i32 0
  %_M_start = getelementptr inbounds %"struct.std::_Vector_base<arrow::compute::InputType, std::allocator<arrow::compute::InputType>>::_Vector_impl_data", ptr %_M_impl2, i32 0, i32 0
  %1 = load ptr, ptr %_M_start, align 8
  %sub.ptr.lhs.cast = ptrtoint ptr %0 to i64
  %sub.ptr.rhs.cast = ptrtoint ptr %1 to i64
  %sub.ptr.sub = sub i64 %sub.ptr.lhs.cast, %sub.ptr.rhs.cast
  %sub.ptr.div = sdiv exact i64 %sub.ptr.sub, 40
  ret i64 %sub.ptr.div
}

; Function Attrs: mustprogress nounwind uwtable
define linkonce_odr noundef i64 @_ZNKSt6vectorIN5arrow10TypeHolderESaIS1_EE4sizeEv(ptr noundef nonnull align 8 dereferenceable(24) %this) #2 comdat align 2 {
entry:
  %this.addr = alloca ptr, align 8
  store ptr %this, ptr %this.addr, align 8
  %this1 = load ptr, ptr %this.addr, align 8
  %_M_impl = getelementptr inbounds %"struct.std::_Vector_base.109", ptr %this1, i32 0, i32 0
  %_M_finish = getelementptr inbounds %"struct.std::_Vector_base<arrow::TypeHolder, std::allocator<arrow::TypeHolder>>::_Vector_impl_data", ptr %_M_impl, i32 0, i32 1
  %0 = load ptr, ptr %_M_finish, align 8
  %_M_impl2 = getelementptr inbounds %"struct.std::_Vector_base.109", ptr %this1, i32 0, i32 0
  %_M_start = getelementptr inbounds %"struct.std::_Vector_base<arrow::TypeHolder, std::allocator<arrow::TypeHolder>>::_Vector_impl_data", ptr %_M_impl2, i32 0, i32 0
  %1 = load ptr, ptr %_M_start, align 8
  %sub.ptr.lhs.cast = ptrtoint ptr %0 to i64
  %sub.ptr.rhs.cast = ptrtoint ptr %1 to i64
  %sub.ptr.sub = sub i64 %sub.ptr.lhs.cast, %sub.ptr.rhs.cast
  %sub.ptr.div = sdiv exact i64 %sub.ptr.sub, 24
  ret i64 %sub.ptr.div
}

; Function Attrs: mustprogress uwtable
define noundef zeroext i1 @_ZNK5arrow7compute15KernelSignature13MatchesInputsERKSt6vectorINS_10TypeHolderESaIS3_EE(ptr noundef nonnull align 8 dereferenceable(96) %this, ptr noundef nonnull align 8 dereferenceable(24) %types) #0 align 2 {
entry:
  %retval = alloca i1, align 1
  %this.addr = alloca ptr, align 8
  %types.addr = alloca ptr, align 8
  %i = alloca i64, align 8
  %ref.tmp = alloca i64, align 8
  %i16 = alloca i64, align 8
  store ptr %this, ptr %this.addr, align 8
  store ptr %types, ptr %types.addr, align 8
  %this1 = load ptr, ptr %this.addr, align 8
  %is_varargs_ = getelementptr inbounds %"class.arrow::compute::KernelSignature", ptr %this1, i32 0, i32 2
  %0 = load i8, ptr %is_varargs_, align 8
  %tobool = trunc i8 %0 to i1
  br i1 %tobool, label %if.then, label %if.else

if.then:                                          ; preds = %entry
  store i64 0, ptr %i, align 8
  br label %for.cond

for.cond:                                         ; preds = %for.inc, %if.then
  %1 = load i64, ptr %i, align 8
  %2 = load ptr, ptr %types.addr, align 8
  %call = call noundef i64 @_ZNKSt6vectorIN5arrow10TypeHolderESaIS1_EE4sizeEv(ptr noundef nonnull align 8 dereferenceable(24) %2) #12
  %cmp = icmp ult i64 %1, %call
  br i1 %cmp, label %for.body, label %for.end

for.body:                                         ; preds = %for.cond
  %in_types_ = getelementptr inbounds %"class.arrow::compute::KernelSignature", ptr %this1, i32 0, i32 0
  %in_types_2 = getelementptr inbounds %"class.arrow::compute::KernelSignature", ptr %this1, i32 0, i32 0
  %call3 = call noundef i64 @_ZNKSt6vectorIN5arrow7compute9InputTypeESaIS2_EE4sizeEv(ptr noundef nonnull align 8 dereferenceable(24) %in_types_2) #12
  %sub = sub i64 %call3, 1
  store i64 %sub, ptr %ref.tmp, align 8
  %call4 = call noundef nonnull align 8 dereferenceable(8) ptr @_ZSt3minImERKT_S2_S2_(ptr noundef nonnull align 8 dereferenceable(8) %i, ptr noundef nonnull align 8 dereferenceable(8) %ref.tmp)
  %3 = load i64, ptr %call4, align 8
  %call5 = call noundef nonnull align 8 dereferenceable(40) ptr @_ZNKSt6vectorIN5arrow7compute9InputTypeESaIS2_EEixEm(ptr noundef nonnull align 8 dereferenceable(24) %in_types_, i64 noundef %3) #12
  %4 = load ptr, ptr %types.addr, align 8
  %5 = load i64, ptr %i, align 8
  %call6 = call noundef nonnull align 8 dereferenceable(24) ptr @_ZNKSt6vectorIN5arrow10TypeHolderESaIS1_EEixEm(ptr noundef nonnull align 8 dereferenceable(24) %4, i64 noundef %5) #12
  %call7 = call noundef nonnull align 8 dereferenceable(72) ptr @_ZNK5arrow10TypeHolderdeEv(ptr noundef nonnull align 8 dereferenceable(24) %call6)
  %call8 = call noundef zeroext i1 @_ZNK5arrow7compute9InputType7MatchesERKNS_8DataTypeE(ptr noundef nonnull align 8 dereferenceable(40) %call5, ptr noundef nonnull align 8 dereferenceable(72) %call7)
  %lnot = xor i1 %call8, true
  br i1 %lnot, label %if.then9, label %if.end

if.then9:                                         ; preds = %for.body
  store i1 false, ptr %retval, align 1
  br label %return

if.end:                                           ; preds = %for.body
  br label %for.inc

for.inc:                                          ; preds = %if.end
  %6 = load i64, ptr %i, align 8
  %inc = add i64 %6, 1
  store i64 %inc, ptr %i, align 8
  br label %for.cond, !llvm.loop !24

for.end:                                          ; preds = %for.cond
  br label %if.end32

if.else:                                          ; preds = %entry
  %7 = load ptr, ptr %types.addr, align 8
  %call10 = call noundef i64 @_ZNKSt6vectorIN5arrow10TypeHolderESaIS1_EE4sizeEv(ptr noundef nonnull align 8 dereferenceable(24) %7) #12
  %in_types_11 = getelementptr inbounds %"class.arrow::compute::KernelSignature", ptr %this1, i32 0, i32 0
  %call12 = call noundef i64 @_ZNKSt6vectorIN5arrow7compute9InputTypeESaIS2_EE4sizeEv(ptr noundef nonnull align 8 dereferenceable(24) %in_types_11) #12
  %cmp13 = icmp ne i64 %call10, %call12
  br i1 %cmp13, label %if.then14, label %if.end15

if.then14:                                        ; preds = %if.else
  store i1 false, ptr %retval, align 1
  br label %return

if.end15:                                         ; preds = %if.else
  store i64 0, ptr %i16, align 8
  br label %for.cond17

for.cond17:                                       ; preds = %for.inc29, %if.end15
  %8 = load i64, ptr %i16, align 8
  %in_types_18 = getelementptr inbounds %"class.arrow::compute::KernelSignature", ptr %this1, i32 0, i32 0
  %call19 = call noundef i64 @_ZNKSt6vectorIN5arrow7compute9InputTypeESaIS2_EE4sizeEv(ptr noundef nonnull align 8 dereferenceable(24) %in_types_18) #12
  %cmp20 = icmp ult i64 %8, %call19
  br i1 %cmp20, label %for.body21, label %for.end31

for.body21:                                       ; preds = %for.cond17
  %in_types_22 = getelementptr inbounds %"class.arrow::compute::KernelSignature", ptr %this1, i32 0, i32 0
  %9 = load i64, ptr %i16, align 8
  %call23 = call noundef nonnull align 8 dereferenceable(40) ptr @_ZNKSt6vectorIN5arrow7compute9InputTypeESaIS2_EEixEm(ptr noundef nonnull align 8 dereferenceable(24) %in_types_22, i64 noundef %9) #12
  %10 = load ptr, ptr %types.addr, align 8
  %11 = load i64, ptr %i16, align 8
  %call24 = call noundef nonnull align 8 dereferenceable(24) ptr @_ZNKSt6vectorIN5arrow10TypeHolderESaIS1_EEixEm(ptr noundef nonnull align 8 dereferenceable(24) %10, i64 noundef %11) #12
  %call25 = call noundef nonnull align 8 dereferenceable(72) ptr @_ZNK5arrow10TypeHolderdeEv(ptr noundef nonnull align 8 dereferenceable(24) %call24)
  %call26 = call noundef zeroext i1 @_ZNK5arrow7compute9InputType7MatchesERKNS_8DataTypeE(ptr noundef nonnull align 8 dereferenceable(40) %call23, ptr noundef nonnull align 8 dereferenceable(72) %call25)
  br i1 %call26, label %if.end28, label %if.then27

if.then27:                                        ; preds = %for.body21
  store i1 false, ptr %retval, align 1
  br label %return

if.end28:                                         ; preds = %for.body21
  br label %for.inc29

for.inc29:                                        ; preds = %if.end28
  %12 = load i64, ptr %i16, align 8
  %inc30 = add i64 %12, 1
  store i64 %inc30, ptr %i16, align 8
  br label %for.cond17, !llvm.loop !25

for.end31:                                        ; preds = %for.cond17
  br label %if.end32

if.end32:                                         ; preds = %for.end31, %for.end
  store i1 true, ptr %retval, align 1
  br label %return

return:                                           ; preds = %if.end32, %if.then27, %if.then14, %if.then9
  %13 = load i1, ptr %retval, align 1
  ret i1 %13
}