; Function Attrs: mustprogress uwtable
define noundef zeroext i1 @_ZNK5arrow7compute15KernelSignature13MatchesInputsERKSt6vectorINS_10TypeHolderESaIS3_EE(ptr nocapture noundef nonnull readonly align 8 dereferenceable(96) %this, ptr nocapture noundef nonnull readonly align 8 dereferenceable(24) %types) local_unnamed_addr #0 align 2 {
entry:
  %is_varargs_ = getelementptr inbounds i8, ptr %this, i64 80
  %0 = load i8, ptr %is_varargs_, align 8
  %1 = and i8 %0, 1
  %tobool.not = icmp eq i8 %1, 0
  %_M_finish.i13 = getelementptr inbounds i8, ptr %types, i64 8
  %2 = load ptr, ptr %_M_finish.i13, align 8
  %3 = load ptr, ptr %types, align 8
  br i1 %tobool.not, label %if.else, label %for.cond.preheader

for.cond.preheader:                               ; preds = %entry
  %cmp52.not = icmp eq ptr %2, %3
  br i1 %cmp52.not, label %return, label %for.body.lr.ph

for.body.lr.ph:                                   ; preds = %for.cond.preheader
  %_M_finish.i7 = getelementptr inbounds i8, ptr %this, i64 8
  br label %for.body

for.body:                                         ; preds = %for.body.lr.ph, %for.inc
  %4 = phi ptr [ %3, %for.body.lr.ph ], [ %13, %for.inc ]
  %storemerge53 = phi i64 [ 0, %for.body.lr.ph ], [ %inc, %for.inc ]
  %5 = load ptr, ptr %_M_finish.i7, align 8
  %6 = load ptr, ptr %this, align 8
  %sub.ptr.lhs.cast.i8 = ptrtoint ptr %5 to i64
  %sub.ptr.rhs.cast.i9 = ptrtoint ptr %6 to i64
  %sub.ptr.sub.i10 = sub i64 %sub.ptr.lhs.cast.i8, %sub.ptr.rhs.cast.i9
  %sub.ptr.div.i11 = sdiv exact i64 %sub.ptr.sub.i10, 40
  %sub = add nsw i64 %sub.ptr.div.i11, -1
  %.sroa.speculated = tail call i64 @llvm.umin.i64(i64 %sub, i64 %storemerge53)
  %add.ptr.i = getelementptr inbounds %"class.arrow::compute::InputType", ptr %6, i64 %.sroa.speculated
  %add.ptr.i12 = getelementptr inbounds %"struct.arrow::TypeHolder", ptr %4, i64 %storemerge53
  %7 = load ptr, ptr %add.ptr.i12, align 8
  %8 = load i32, ptr %add.ptr.i, align 8
  switch i32 %8, label %for.inc [
    i32 1, label %_ZNK5arrow7compute9InputType7MatchesERKNS_8DataTypeE.exit
    i32 2, label %sw.bb3.i
  ]

sw.bb3.i:                                         ; preds = %for.body
  %type_matcher_.i = getelementptr inbounds i8, ptr %add.ptr.i, i64 24
  %9 = load ptr, ptr %type_matcher_.i, align 8
  %vtable.i = load ptr, ptr %9, align 8
  %vfn.i = getelementptr inbounds i8, ptr %vtable.i, i64 16
  %10 = load ptr, ptr %vfn.i, align 8
  %call5.i = tail call noundef zeroext i1 %10(ptr noundef nonnull align 8 dereferenceable(8) %9, ptr noundef nonnull align 8 dereferenceable(72) %7)
  br i1 %call5.i, label %for.inc, label %return

_ZNK5arrow7compute9InputType7MatchesERKNS_8DataTypeE.exit: ; preds = %for.body
  %type_.i = getelementptr inbounds i8, ptr %add.ptr.i, i64 8
  %11 = load ptr, ptr %type_.i, align 8
  %call2.i = tail call noundef zeroext i1 @_ZNK5arrow8DataType6EqualsERKS0_b(ptr noundef nonnull align 8 dereferenceable(72) %11, ptr noundef nonnull align 8 dereferenceable(72) %7, i1 noundef zeroext false)
  br i1 %call2.i, label %for.inc, label %return

for.inc:                                          ; preds = %for.body, %sw.bb3.i, %_ZNK5arrow7compute9InputType7MatchesERKNS_8DataTypeE.exit
  %inc = add nuw i64 %storemerge53, 1
  %12 = load ptr, ptr %_M_finish.i13, align 8
  %13 = load ptr, ptr %types, align 8
  %sub.ptr.lhs.cast.i = ptrtoint ptr %12 to i64
  %sub.ptr.rhs.cast.i = ptrtoint ptr %13 to i64
  %sub.ptr.sub.i = sub i64 %sub.ptr.lhs.cast.i, %sub.ptr.rhs.cast.i
  %sub.ptr.div.i = sdiv exact i64 %sub.ptr.sub.i, 24
  %cmp = icmp ult i64 %inc, %sub.ptr.div.i
  br i1 %cmp, label %for.body, label %return, !llvm.loop !106

if.else:                                          ; preds = %entry
  %sub.ptr.lhs.cast.i14 = ptrtoint ptr %2 to i64
  %sub.ptr.rhs.cast.i15 = ptrtoint ptr %3 to i64
  %sub.ptr.sub.i16 = sub i64 %sub.ptr.lhs.cast.i14, %sub.ptr.rhs.cast.i15
  %sub.ptr.div.i17 = sdiv exact i64 %sub.ptr.sub.i16, 24
  %_M_finish.i18 = getelementptr inbounds i8, ptr %this, i64 8
  %14 = load ptr, ptr %_M_finish.i18, align 8
  %15 = load ptr, ptr %this, align 8
  %sub.ptr.lhs.cast.i19 = ptrtoint ptr %14 to i64
  %sub.ptr.rhs.cast.i20 = ptrtoint ptr %15 to i64
  %sub.ptr.sub.i21 = sub i64 %sub.ptr.lhs.cast.i19, %sub.ptr.rhs.cast.i20
  %sub.ptr.div.i22 = sdiv exact i64 %sub.ptr.sub.i21, 40
  %cmp13.not = icmp eq i64 %sub.ptr.div.i17, %sub.ptr.div.i22
  br i1 %cmp13.not, label %for.cond17.preheader, label %return

for.cond17.preheader:                             ; preds = %if.else
  %cmp2060.not = icmp eq ptr %14, %15
  br i1 %cmp2060.not, label %return, label %for.body21

for.body21:                                       ; preds = %for.cond17.preheader, %for.inc29
  %16 = phi ptr [ %24, %for.inc29 ], [ %15, %for.cond17.preheader ]
  %i16.061 = phi i64 [ %inc30, %for.inc29 ], [ 0, %for.cond17.preheader ]
  %add.ptr.i28 = getelementptr inbounds %"class.arrow::compute::InputType", ptr %16, i64 %i16.061
  %17 = load ptr, ptr %types, align 8
  %add.ptr.i29 = getelementptr inbounds %"struct.arrow::TypeHolder", ptr %17, i64 %i16.061
  %18 = load ptr, ptr %add.ptr.i29, align 8
  %19 = load i32, ptr %add.ptr.i28, align 8
  switch i32 %19, label %for.inc29 [
    i32 1, label %_ZNK5arrow7compute9InputType7MatchesERKNS_8DataTypeE.exit39
    i32 2, label %sw.bb3.i30
  ]

sw.bb3.i30:                                       ; preds = %for.body21
  %type_matcher_.i31 = getelementptr inbounds i8, ptr %add.ptr.i28, i64 24
  %20 = load ptr, ptr %type_matcher_.i31, align 8
  %vtable.i32 = load ptr, ptr %20, align 8
  %vfn.i33 = getelementptr inbounds i8, ptr %vtable.i32, i64 16
  %21 = load ptr, ptr %vfn.i33, align 8
  %call5.i34 = tail call noundef zeroext i1 %21(ptr noundef nonnull align 8 dereferenceable(8) %20, ptr noundef nonnull align 8 dereferenceable(72) %18)
  br i1 %call5.i34, label %for.inc29, label %return

_ZNK5arrow7compute9InputType7MatchesERKNS_8DataTypeE.exit39: ; preds = %for.body21
  %type_.i37 = getelementptr inbounds i8, ptr %add.ptr.i28, i64 8
  %22 = load ptr, ptr %type_.i37, align 8
  %call2.i38 = tail call noundef zeroext i1 @_ZNK5arrow8DataType6EqualsERKS0_b(ptr noundef nonnull align 8 dereferenceable(72) %22, ptr noundef nonnull align 8 dereferenceable(72) %18, i1 noundef zeroext false)
  br i1 %call2.i38, label %for.inc29, label %return

for.inc29:                                        ; preds = %for.body21, %sw.bb3.i30, %_ZNK5arrow7compute9InputType7MatchesERKNS_8DataTypeE.exit39
  %inc30 = add nuw i64 %i16.061, 1
  %23 = load ptr, ptr %_M_finish.i18, align 8
  %24 = load ptr, ptr %this, align 8
  %sub.ptr.lhs.cast.i24 = ptrtoint ptr %23 to i64
  %sub.ptr.rhs.cast.i25 = ptrtoint ptr %24 to i64
  %sub.ptr.sub.i26 = sub i64 %sub.ptr.lhs.cast.i24, %sub.ptr.rhs.cast.i25
  %sub.ptr.div.i27 = sdiv exact i64 %sub.ptr.sub.i26, 40
  %cmp20 = icmp ult i64 %inc30, %sub.ptr.div.i27
  br i1 %cmp20, label %for.body21, label %return, !llvm.loop !107

return:                                           ; preds = %_ZNK5arrow7compute9InputType7MatchesERKNS_8DataTypeE.exit, %for.inc, %sw.bb3.i, %_ZNK5arrow7compute9InputType7MatchesERKNS_8DataTypeE.exit39, %for.inc29, %sw.bb3.i30, %for.cond.preheader, %for.cond17.preheader, %if.else
  %retval.0 = phi i1 [ false, %if.else ], [ true, %for.cond17.preheader ], [ true, %for.cond.preheader ], [ false, %_ZNK5arrow7compute9InputType7MatchesERKNS_8DataTypeE.exit39 ], [ true, %for.inc29 ], [ false, %sw.bb3.i30 ], [ false, %_ZNK5arrow7compute9InputType7MatchesERKNS_8DataTypeE.exit ], [ true, %for.inc ], [ false, %sw.bb3.i ]
  ret i1 %retval.0
}